target datalayout = "e-m:e-p270:32:32-p271:32:32-p272:64:64-i64:64-i128:128-f80:128-n8:16:32:64-S128"
target triple = "x86_64-pc-linux-gnu"

%struct.pdf_struct = type { ptr, i32, i32, i32, i32, i32, ptr, i64, ptr, i64, i64, i64, ptr, ptr, i32, i32, ptr, i32, ptr, i32, %struct.pdf_stats, ptr, i32, i32 }
%struct.pdf_stats = type { i32, i32, i32, i32, i32, i32, i32, i32, i32, i32, i32, i32, i32, i32, i32, i32, i32, i32, i32, i32, i32, i32, i32, i32, i32, ptr, ptr, ptr, ptr, ptr, ptr, ptr, ptr }

@.str.212 = private unnamed_addr constant [4 x i8] c"pdf\00", align 1

; Function Attrs: nounwind uwtable
define internal i64 @filter_writen(ptr noundef %0, ptr noundef %1, i32 noundef %2, ptr noundef %3, i64 noundef %4, ptr noundef %5) #0 {
  %7 = alloca i64, align 8
  %8 = alloca ptr, align 8
  %9 = alloca ptr, align 8
  %10 = alloca i32, align 4
  %11 = alloca ptr, align 8
  %12 = alloca i64, align 8
  %13 = alloca ptr, align 8
  store ptr %0, ptr %8, align 8
  store ptr %1, ptr %9, align 8
  store i32 %2, ptr %10, align 4
  store ptr %3, ptr %11, align 8
  store i64 %4, ptr %12, align 8
  store ptr %5, ptr %13, align 8
  %14 = load ptr, ptr %8, align 8
  %15 = getelementptr inbounds %struct.pdf_struct, ptr %14, i32 0, i32 12
  %16 = load ptr, ptr %15, align 8
  %17 = load ptr, ptr %13, align 8
  %18 = load i64, ptr %17, align 8
  %19 = call i32 @cli_checklimits(ptr noundef @.str.212, ptr noundef %16, i64 noundef %18, i64 noundef 0, i64 noundef 0)
  %20 = icmp ne i32 %19, 0
  br i1 %20, label %21, label %23

21:                                               ; preds = %6
  %22 = load i64, ptr %12, align 8
  store i64 %22, ptr %7, align 8
  br label %32

23:                                               ; preds = %6
  %24 = load i64, ptr %12, align 8
  %25 = load ptr, ptr %13, align 8
  %26 = load i64, ptr %25, align 8
  %27 = add i64 %26, %24
  store i64 %27, ptr %25, align 8
  %28 = load i32, ptr %10, align 4
  %29 = load ptr, ptr %11, align 8
  %30 = load i64, ptr %12, align 8
  %31 = call i64 @cli_writen(i32 noundef %28, ptr noundef %29, i64 noundef %30)
  store i64 %31, ptr %7, align 8
  br label %32

32:                                               ; preds = %23, %21
  %33 = load i64, ptr %7, align 8
  ret i64 %33
}