; Function Attrs: nounwind uwtable
define internal fastcc i64 @filter_writen(ptr %.80.val, i32 noundef %0, ptr noundef %1, i64 noundef %2, ptr nocapture noundef %3) unnamed_addr #0 {
  %5 = load i64, ptr %3, align 8
  %6 = tail call i32 @cli_checklimits(ptr noundef nonnull @.str.212, ptr noundef %.80.val, i64 noundef %5, i64 noundef 0, i64 noundef 0) #22
  %.not = icmp eq i32 %6, 0
  br i1 %.not, label %7, label %11

7:                                                ; preds = %4
  %8 = load i64, ptr %3, align 8
  %9 = add i64 %8, %2
  store i64 %9, ptr %3, align 8
  %10 = tail call i64 @cli_writen(i32 noundef %0, ptr noundef %1, i64 noundef %2) #22
  br label %11

11:                                               ; preds = %4, %7
  %.0 = phi i64 [ %10, %7 ], [ %2, %4 ]
  ret i64 %.0
}